; Function Attrs: mustprogress nofree norecurse nosync nounwind willreturn memory(argmem: write) uwtable
define range(i32 -98, 1) i32 @sp_init(ptr noundef writeonly captures(address_is_null) %0) local_unnamed_addr #0 {
  %2 = icmp eq ptr %0, null
  br i1 %2, label %6, label %3

3:                                                ; preds = %1
  store i16 0, ptr %0, align 8, !tbaa !3
  %4 = getelementptr inbounds nuw i8, ptr %0, i64 8
  store i64 0, ptr %4, align 8, !tbaa !8
  %5 = getelementptr inbounds nuw i8, ptr %0, i64 2
  store i16 129, ptr %5, align 2, !tbaa !10
  br label %6

6:                                                ; preds = %1, %3
  %.0 = phi i32 [ 0, %3 ], [ -98, %1 ]
  ret i32 %.0
}